target datalayout = "e-m:e-p270:32:32-p271:32:32-p272:64:64-i64:64-i128:128-f80:128-n8:16:32:64-S128"
target triple = "x86_64-pc-linux-gnu"

%struct.ForEachState = type { ptr, i32 }
%struct.List = type { i32, i32, i32, ptr, [0 x %union.ListCell] }
%union.ListCell = type { ptr }
%struct.FunctionCallInfoBaseData = type { ptr, ptr, ptr, i32, i8, i16, [0 x %struct.NullableDatum] }
%struct.NullableDatum = type { i64, i8 }
%struct.DefElem = type { i32, ptr, ptr, ptr, i32, i32 }
%struct.String = type { i32, ptr }
%struct.ReturnSetInfo = type { i32, ptr, ptr, i32, i32, i32, ptr, ptr }

; Function Attrs: inlinehint nounwind uwtable
define internal i64 @PointerGetDatum(ptr noundef %0) #3 {
  %2 = alloca ptr, align 8
  store ptr %0, ptr %2, align 8
  %3 = load ptr, ptr %2, align 8
  %4 = ptrtoint ptr %3 to i64
  ret i64 %4
}

; Function Attrs: nounwind uwtable
define dso_local i64 @pg_options_to_table(ptr noundef %0) #0 {
  %2 = alloca ptr, align 8
  %3 = alloca i64, align 8
  %4 = alloca ptr, align 8
  %5 = alloca ptr, align 8
  %6 = alloca ptr, align 8
  %7 = alloca %struct.ForEachState, align 8
  %8 = alloca ptr, align 8
  %9 = alloca [2 x i64], align 16
  %10 = alloca [2 x i8], align 1
  store ptr %0, ptr %2, align 8
  call void @llvm.lifetime.start.p0(i64 8, ptr %3) #9
  %11 = load ptr, ptr %2, align 8
  %12 = getelementptr inbounds nuw %struct.FunctionCallInfoBaseData, ptr %11, i32 0, i32 6
  %13 = getelementptr inbounds [0 x %struct.NullableDatum], ptr %12, i64 0, i64 0
  %14 = getelementptr inbounds nuw %struct.NullableDatum, ptr %13, i32 0, i32 0
  %15 = load i64, ptr %14, align 8
  store i64 %15, ptr %3, align 8
  call void @llvm.lifetime.start.p0(i64 8, ptr %4) #9
  call void @llvm.lifetime.start.p0(i64 8, ptr %5) #9
  call void @llvm.lifetime.start.p0(i64 8, ptr %6) #9
  %16 = load i64, ptr %3, align 8
  %17 = call ptr @untransformRelOptions(i64 noundef %16)
  store ptr %17, ptr %5, align 8
  %18 = load ptr, ptr %2, align 8
  %19 = getelementptr inbounds nuw %struct.FunctionCallInfoBaseData, ptr %18, i32 0, i32 2
  %20 = load ptr, ptr %19, align 8
  store ptr %20, ptr %6, align 8
  %21 = load ptr, ptr %2, align 8
  call void @InitMaterializedSRF(ptr noundef %21, i32 noundef 1)
  call void @llvm.lifetime.start.p0(i64 16, ptr %7) #9
  %22 = getelementptr inbounds nuw %struct.ForEachState, ptr %7, i32 0, i32 0
  %23 = load ptr, ptr %5, align 8
  store ptr %23, ptr %22, align 8
  %24 = getelementptr inbounds nuw %struct.ForEachState, ptr %7, i32 0, i32 1
  store i32 0, ptr %24, align 8
  %25 = getelementptr i8, ptr %7, i64 12
  call void @llvm.memset.p0.i64(ptr align 4 %25, i8 0, i64 4, i1 false)
  br label %26

26:                                               ; preds = %88, %1
  %27 = getelementptr inbounds nuw %struct.ForEachState, ptr %7, i32 0, i32 0
  %28 = load ptr, ptr %27, align 8
  %29 = icmp ne ptr %28, null
  br i1 %29, label %30, label %47

30:                                               ; preds = %26
  %31 = getelementptr inbounds nuw %struct.ForEachState, ptr %7, i32 0, i32 1
  %32 = load i32, ptr %31, align 8
  %33 = getelementptr inbounds nuw %struct.ForEachState, ptr %7, i32 0, i32 0
  %34 = load ptr, ptr %33, align 8
  %35 = getelementptr inbounds nuw %struct.List, ptr %34, i32 0, i32 1
  %36 = load i32, ptr %35, align 4
  %37 = icmp slt i32 %32, %36
  br i1 %37, label %38, label %47

38:                                               ; preds = %30
  %39 = getelementptr inbounds nuw %struct.ForEachState, ptr %7, i32 0, i32 0
  %40 = load ptr, ptr %39, align 8
  %41 = getelementptr inbounds nuw %struct.List, ptr %40, i32 0, i32 3
  %42 = load ptr, ptr %41, align 8
  %43 = getelementptr inbounds nuw %struct.ForEachState, ptr %7, i32 0, i32 1
  %44 = load i32, ptr %43, align 8
  %45 = sext i32 %44 to i64
  %46 = getelementptr inbounds %union.ListCell, ptr %42, i64 %45
  store ptr %46, ptr %4, align 8
  br label %48

47:                                               ; preds = %30, %26
  store ptr null, ptr %4, align 8
  br label %48

48:                                               ; preds = %47, %38
  %49 = phi i32 [ 1, %38 ], [ 0, %47 ]
  %50 = icmp ne i32 %49, 0
  br i1 %50, label %52, label %51

51:                                               ; preds = %48
  call void @llvm.lifetime.end.p0(i64 16, ptr %7) #9
  br label %92

52:                                               ; preds = %48
  call void @llvm.lifetime.start.p0(i64 8, ptr %8) #9
  %53 = load ptr, ptr %4, align 8
  %54 = load ptr, ptr %53, align 8
  store ptr %54, ptr %8, align 8
  call void @llvm.lifetime.start.p0(i64 16, ptr %9) #9
  call void @llvm.lifetime.start.p0(i64 2, ptr %10) #9
  %55 = load ptr, ptr %8, align 8
  %56 = getelementptr inbounds nuw %struct.DefElem, ptr %55, i32 0, i32 2
  %57 = load ptr, ptr %56, align 8
  %58 = call ptr @cstring_to_text(ptr noundef %57)
  %59 = call i64 @PointerGetDatum(ptr noundef %58)
  %60 = getelementptr inbounds [2 x i64], ptr %9, i64 0, i64 0
  store i64 %59, ptr %60, align 16
  %61 = getelementptr inbounds [2 x i8], ptr %10, i64 0, i64 0
  store i8 0, ptr %61, align 1
  %62 = load ptr, ptr %8, align 8
  %63 = getelementptr inbounds nuw %struct.DefElem, ptr %62, i32 0, i32 3
  %64 = load ptr, ptr %63, align 8
  %65 = icmp ne ptr %64, null
  br i1 %65, label %66, label %76

66:                                               ; preds = %52
  %67 = load ptr, ptr %8, align 8
  %68 = getelementptr inbounds nuw %struct.DefElem, ptr %67, i32 0, i32 3
  %69 = load ptr, ptr %68, align 8
  %70 = getelementptr inbounds nuw %struct.String, ptr %69, i32 0, i32 1
  %71 = load ptr, ptr %70, align 8
  %72 = call ptr @cstring_to_text(ptr noundef %71)
  %73 = call i64 @PointerGetDatum(ptr noundef %72)
  %74 = getelementptr inbounds [2 x i64], ptr %9, i64 0, i64 1
  store i64 %73, ptr %74, align 8
  %75 = getelementptr inbounds [2 x i8], ptr %10, i64 0, i64 1
  store i8 0, ptr %75, align 1
  br label %79

76:                                               ; preds = %52
  %77 = getelementptr inbounds [2 x i64], ptr %9, i64 0, i64 1
  store i64 0, ptr %77, align 8
  %78 = getelementptr inbounds [2 x i8], ptr %10, i64 0, i64 1
  store i8 1, ptr %78, align 1
  br label %79

79:                                               ; preds = %76, %66
  %80 = load ptr, ptr %6, align 8
  %81 = getelementptr inbounds nuw %struct.ReturnSetInfo, ptr %80, i32 0, i32 6
  %82 = load ptr, ptr %81, align 8
  %83 = load ptr, ptr %6, align 8
  %84 = getelementptr inbounds nuw %struct.ReturnSetInfo, ptr %83, i32 0, i32 7
  %85 = load ptr, ptr %84, align 8
  %86 = getelementptr inbounds [2 x i64], ptr %9, i64 0, i64 0
  %87 = getelementptr inbounds [2 x i8], ptr %10, i64 0, i64 0
  call void @tuplestore_putvalues(ptr noundef %82, ptr noundef %85, ptr noundef %86, ptr noundef %87)
  call void @llvm.lifetime.end.p0(i64 2, ptr %10) #9
  call void @llvm.lifetime.end.p0(i64 16, ptr %9) #9
  call void @llvm.lifetime.end.p0(i64 8, ptr %8) #9
  br label %88

88:                                               ; preds = %79
  %89 = getelementptr inbounds nuw %struct.ForEachState, ptr %7, i32 0, i32 1
  %90 = load i32, ptr %89, align 8
  %91 = add i32 %90, 1
  store i32 %91, ptr %89, align 8
  br label %26, !llvm.loop !9

92:                                               ; preds = %51
  call void @llvm.lifetime.end.p0(i64 8, ptr %6) #9
  call void @llvm.lifetime.end.p0(i64 8, ptr %5) #9
  call void @llvm.lifetime.end.p0(i64 8, ptr %4) #9
  call void @llvm.lifetime.end.p0(i64 8, ptr %3) #9
  ret i64 0
}