; Function Attrs: nounwind uwtable
define dso_local noundef i64 @pg_options_to_table(ptr noundef %0) local_unnamed_addr #0 {
  %2 = alloca [2 x i64], align 16
  %3 = alloca [2 x i8], align 1
  %4 = getelementptr inbounds nuw i8, ptr %0, i64 32
  %5 = load i64, ptr %4, align 8
  %6 = tail call ptr @untransformRelOptions(i64 noundef %5) #8
  %7 = getelementptr inbounds nuw i8, ptr %0, i64 16
  %8 = load ptr, ptr %7, align 8
  tail call void @InitMaterializedSRF(ptr noundef %0, i32 noundef 1) #8
  %9 = getelementptr inbounds nuw i8, ptr %6, i64 4
  %.not = icmp eq ptr %6, null
  br i1 %.not, label %._crit_edge, label %.lr.ph

.lr.ph:                                           ; preds = %1
  %10 = getelementptr inbounds nuw i8, ptr %6, i64 16
  %11 = getelementptr inbounds nuw i8, ptr %2, i64 8
  %12 = getelementptr inbounds nuw i8, ptr %3, i64 1
  %13 = getelementptr inbounds nuw i8, ptr %8, i64 40
  %14 = getelementptr inbounds nuw i8, ptr %8, i64 48
  %15 = load i32, ptr %9, align 4
  %16 = icmp sgt i32 %15, 0
  br i1 %16, label %.lr.ph23, label %._crit_edge

._crit_edge:                                      ; preds = %31, %.lr.ph, %1
  ret i64 0

.lr.ph23:                                         ; preds = %.lr.ph, %31
  %indvars.iv = phi i64 [ %indvars.iv.next, %31 ], [ 0, %.lr.ph ]
  %17 = load ptr, ptr %10, align 8
  %18 = getelementptr inbounds nuw %union.ListCell, ptr %17, i64 %indvars.iv
  %19 = load ptr, ptr %18, align 8
  call void @llvm.lifetime.start.p0(i64 16, ptr nonnull %2) #8
  call void @llvm.lifetime.start.p0(i64 2, ptr nonnull %3) #8
  %20 = getelementptr inbounds nuw i8, ptr %19, i64 16
  %21 = load ptr, ptr %20, align 8
  %22 = call ptr @cstring_to_text(ptr noundef %21) #8
  %23 = ptrtoint ptr %22 to i64
  store i64 %23, ptr %2, align 16
  store i8 0, ptr %3, align 1
  %24 = getelementptr inbounds nuw i8, ptr %19, i64 24
  %25 = load ptr, ptr %24, align 8
  %.not17 = icmp eq ptr %25, null
  br i1 %.not17, label %31, label %26

26:                                               ; preds = %.lr.ph23
  %27 = getelementptr inbounds nuw i8, ptr %25, i64 8
  %28 = load ptr, ptr %27, align 8
  %29 = call ptr @cstring_to_text(ptr noundef %28) #8
  %30 = ptrtoint ptr %29 to i64
  br label %31

31:                                               ; preds = %.lr.ph23, %26
  %storemerge25 = phi i64 [ %30, %26 ], [ 0, %.lr.ph23 ]
  %storemerge = phi i8 [ 0, %26 ], [ 1, %.lr.ph23 ]
  store i64 %storemerge25, ptr %11, align 8
  store i8 %storemerge, ptr %12, align 1
  %32 = load ptr, ptr %13, align 8
  %33 = load ptr, ptr %14, align 8
  call void @tuplestore_putvalues(ptr noundef %32, ptr noundef %33, ptr noundef nonnull %2, ptr noundef nonnull %3) #8
  call void @llvm.lifetime.end.p0(i64 2, ptr nonnull %3) #8
  call void @llvm.lifetime.end.p0(i64 16, ptr nonnull %2) #8
  %indvars.iv.next = add nuw nsw i64 %indvars.iv, 1
  %34 = load i32, ptr %9, align 4
  %35 = sext i32 %34 to i64
  %36 = icmp slt i64 %indvars.iv.next, %35
  br i1 %36, label %.lr.ph23, label %._crit_edge
}